; Function Attrs: mustprogress uwtable
define internal fastcc noundef nonnull align 8 dereferenceable(24) ptr @_ZNK7testing18WithParamInterfaceISt5tupleIJN2cv5Size_IiEEiN11opencv_test12_GLOBAL__N_18Mat_TypeEdEEE8GetParamEv() unnamed_addr #3 align 2 personality ptr @__gxx_personality_v0 {
  %1 = alloca %"class.testing::internal::GTestLog", align 4
  %2 = load ptr, ptr @_ZN7testing8internal12g_parameter_E, align 8
  %3 = icmp ne ptr %2, null
  %4 = tail call noundef zeroext i1 @_ZN7testing8internal6IsTrueEb(i1 noundef zeroext %3)
  br i1 %4, label %14, label %5

5:                                                ; preds = %0
  call void @_ZN7testing8internal8GTestLogC1ENS0_16GTestLogSeverityEPKci(ptr noundef nonnull align 4 dereferenceable(4) %1, i32 noundef 3, ptr noundef nonnull @.str.29, i32 noundef 21704)
  %6 = invoke noundef nonnull align 8 dereferenceable(8) ptr @_ZStlsISt11char_traitsIcEERSt13basic_ostreamIcT_ES5_PKc(ptr noundef nonnull align 8 dereferenceable(8) @_ZSt4cerr, ptr noundef nonnull @.str.52)
          to label %7 unwind label %12

7:                                                ; preds = %5
  %8 = invoke noundef nonnull align 8 dereferenceable(8) ptr @_ZStlsISt11char_traitsIcEERSt13basic_ostreamIcT_ES5_PKc(ptr noundef nonnull align 8 dereferenceable(8) %6, ptr noundef nonnull @.str.53)
          to label %9 unwind label %12

9:                                                ; preds = %7
  %10 = invoke noundef nonnull align 8 dereferenceable(8) ptr @_ZStlsISt11char_traitsIcEERSt13basic_ostreamIcT_ES5_PKc(ptr noundef nonnull align 8 dereferenceable(8) %8, ptr noundef nonnull @.str.54)
          to label %11 unwind label %12

11:                                               ; preds = %9
  call void @_ZN7testing8internal8GTestLogD1Ev(ptr noundef nonnull align 4 dereferenceable(4) %1) #26
  br label %14

12:                                               ; preds = %9, %7, %5
  %13 = landingpad { ptr, i32 }
          cleanup
  call void @_ZN7testing8internal8GTestLogD1Ev(ptr noundef nonnull align 4 dereferenceable(4) %1) #26
  resume { ptr, i32 } %13

14:                                               ; preds = %0, %11
  %15 = load ptr, ptr @_ZN7testing8internal12g_parameter_E, align 8
  ret ptr %15
}